
main.o:     file format elf32-littleriscv


Disassembly of section .text:

00000000 <main>:
   0:	fa010113          	addi	sp,sp,-96
   4:	04112e23          	sw	ra,92(sp)
   8:	000007b7          	lui	a5,0x0
   c:	00078793          	mv	a5,a5
  10:	0007ae83          	lw	t4,0(a5) # 0 <main>
  14:	0047ae03          	lw	t3,4(a5)
  18:	0087a303          	lw	t1,8(a5)
  1c:	00c7a883          	lw	a7,12(a5)
  20:	0107a803          	lw	a6,16(a5)
  24:	0147a503          	lw	a0,20(a5)
  28:	0187a583          	lw	a1,24(a5)
  2c:	01c7a603          	lw	a2,28(a5)
  30:	0207a683          	lw	a3,32(a5)
  34:	0247a703          	lw	a4,36(a5)
  38:	03d12423          	sw	t4,40(sp)
  3c:	03c12623          	sw	t3,44(sp)
  40:	02612823          	sw	t1,48(sp)
  44:	03112a23          	sw	a7,52(sp)
  48:	03012c23          	sw	a6,56(sp)
  4c:	02a12e23          	sw	a0,60(sp)
  50:	04b12023          	sw	a1,64(sp)
  54:	04c12223          	sw	a2,68(sp)
  58:	04d12423          	sw	a3,72(sp)
  5c:	04e12623          	sw	a4,76(sp)
  60:	0287ae03          	lw	t3,40(a5)
  64:	02c7a303          	lw	t1,44(a5)
  68:	0307a883          	lw	a7,48(a5)
  6c:	0347a803          	lw	a6,52(a5)
  70:	0387a503          	lw	a0,56(a5)
  74:	03c7a583          	lw	a1,60(a5)
  78:	0407a603          	lw	a2,64(a5)
  7c:	0447a683          	lw	a3,68(a5)
  80:	0487a703          	lw	a4,72(a5)
  84:	04c7a783          	lw	a5,76(a5)
  88:	01c12023          	sw	t3,0(sp)
  8c:	00612223          	sw	t1,4(sp)
  90:	01112423          	sw	a7,8(sp)
  94:	01012623          	sw	a6,12(sp)
  98:	00a12823          	sw	a0,16(sp)
  9c:	00b12a23          	sw	a1,20(sp)
  a0:	00c12c23          	sw	a2,24(sp)
  a4:	00d12e23          	sw	a3,28(sp)
  a8:	02e12023          	sw	a4,32(sp)
  ac:	02f12223          	sw	a5,36(sp)
  b0:	00500613          	li	a2,5
  b4:	00010593          	mv	a1,sp
  b8:	02810513          	addi	a0,sp,40
  bc:	00000097          	auipc	ra,0x0
  c0:	000080e7          	jalr	ra # bc <main+0xbc>
  c4:	00050613          	mv	a2,a0
  c8:	00058693          	mv	a3,a1
  cc:	00000537          	lui	a0,0x0
  d0:	00050513          	mv	a0,a0
  d4:	00000097          	auipc	ra,0x0
  d8:	000080e7          	jalr	ra # d4 <main+0xd4>
  dc:	00000513          	li	a0,0
  e0:	05c12083          	lw	ra,92(sp)
  e4:	06010113          	addi	sp,sp,96
  e8:	00008067          	ret

libtrapz.o:     file format elf32-littleriscv


Disassembly of section .text:

00000000 <trapz>:
   0:	fd010113          	addi	sp,sp,-48
   4:	02112623          	sw	ra,44(sp)
   8:	02812423          	sw	s0,40(sp)
   c:	02912223          	sw	s1,36(sp)
  10:	03212023          	sw	s2,32(sp)
  14:	01312e23          	sw	s3,28(sp)
  18:	01412c23          	sw	s4,24(sp)
  1c:	01512a23          	sw	s5,20(sp)
  20:	01612823          	sw	s6,16(sp)
  24:	01712623          	sw	s7,12(sp)
  28:	01812423          	sw	s8,8(sp)
  2c:	00100793          	li	a5,1
  30:	0ef60663          	beq	a2,a5,11c <.L4>
  34:	00050493          	mv	s1,a0
  38:	00858413          	addi	s0,a1,8
  3c:	00361613          	slli	a2,a2,0x3
  40:	00c58bb3          	add	s7,a1,a2
  44:	00000993          	li	s3,0
  48:	00000913          	li	s2,0
  4c:	000007b7          	lui	a5,0x0
  50:	0007aa03          	lw	s4,0(a5) # 0 <trapz>
  54:	0007aa83          	lw	s5,0(a5)

00000058 <.L3>:
  58:	ff842603          	lw	a2,-8(s0)
  5c:	ffc42683          	lw	a3,-4(s0)
  60:	00042503          	lw	a0,0(s0)
  64:	00442583          	lw	a1,4(s0)
  68:	00000097          	auipc	ra,0x0
  6c:	000080e7          	jalr	ra # 68 <.L3+0x10>
  70:	00050c13          	mv	s8,a0
  74:	00058b13          	mv	s6,a1
  78:	0004a603          	lw	a2,0(s1)
  7c:	0044a683          	lw	a3,4(s1)
  80:	0084a503          	lw	a0,8(s1)
  84:	00c4a583          	lw	a1,12(s1)
  88:	00000097          	auipc	ra,0x0
  8c:	000080e7          	jalr	ra # 88 <.L3+0x30>
  90:	00050613          	mv	a2,a0
  94:	00058693          	mv	a3,a1
  98:	000c0513          	mv	a0,s8
  9c:	000b0593          	mv	a1,s6
  a0:	00000097          	auipc	ra,0x0
  a4:	000080e7          	jalr	ra # a0 <.L3+0x48>
  a8:	000a0613          	mv	a2,s4
  ac:	000a8693          	mv	a3,s5
  b0:	00000097          	auipc	ra,0x0
  b4:	000080e7          	jalr	ra # b0 <.L3+0x58>
  b8:	00050613          	mv	a2,a0
  bc:	00058693          	mv	a3,a1
  c0:	00098513          	mv	a0,s3
  c4:	00090593          	mv	a1,s2
  c8:	00000097          	auipc	ra,0x0
  cc:	000080e7          	jalr	ra # c8 <.L3+0x70>
  d0:	00050993          	mv	s3,a0
  d4:	00058913          	mv	s2,a1
  d8:	00848493          	addi	s1,s1,8
  dc:	00840413          	addi	s0,s0,8
  e0:	f7741ce3          	bne	s0,s7,58 <.L3>

000000e4 <.L1>:
  e4:	00098513          	mv	a0,s3
  e8:	00090593          	mv	a1,s2
  ec:	02c12083          	lw	ra,44(sp)
  f0:	02812403          	lw	s0,40(sp)
  f4:	02412483          	lw	s1,36(sp)
  f8:	02012903          	lw	s2,32(sp)
  fc:	01c12983          	lw	s3,28(sp)
 100:	01812a03          	lw	s4,24(sp)
 104:	01412a83          	lw	s5,20(sp)
 108:	01012b03          	lw	s6,16(sp)
 10c:	00c12b83          	lw	s7,12(sp)
 110:	00812c03          	lw	s8,8(sp)
 114:	03010113          	addi	sp,sp,48
 118:	00008067          	ret

0000011c <.L4>:
 11c:	00000993          	li	s3,0
 120:	00000913          	li	s2,0
 124:	fc1ff06f          	j	e4 <.L1>
